; Function Attrs: mustprogress uwtable
define hidden void @_ZN3opt3lns16apply_best_modelEv(ptr noundef nonnull readonly align 8 captures(none) dereferenceable(184) %0) local_unnamed_addr #4 align 2 {
  %2 = getelementptr inbounds nuw i8, ptr %0, i64 8
  %3 = load ptr, ptr %2, align 8, !tbaa !74
  %4 = getelementptr inbounds nuw i8, ptr %0, i64 120
  %5 = load ptr, ptr %4, align 8, !tbaa !81
  %6 = load ptr, ptr %3, align 8, !tbaa !3
  %7 = getelementptr inbounds nuw i8, ptr %6, i64 176
  %8 = load ptr, ptr %7, align 8
  tail call void %8(ptr noundef nonnull align 8 dereferenceable(96) %3, ptr noundef %5)
  %9 = getelementptr inbounds nuw i8, ptr %0, i64 56
  %10 = load ptr, ptr %9, align 8, !tbaa !17
  %11 = icmp eq ptr %10, null
  br i1 %11, label %._crit_edge, label %_ZNK15ref_vector_coreI4expr19ref_manager_wrapperIS0_11ast_managerEE3endEv.exit

_ZNK15ref_vector_coreI4expr19ref_manager_wrapperIS0_11ast_managerEE3endEv.exit: ; preds = %1
  %12 = getelementptr inbounds i8, ptr %10, i64 -4
  %13 = load i32, ptr %12, align 4, !tbaa !63
  %14 = zext i32 %13 to i64
  %15 = getelementptr inbounds nuw ptr, ptr %10, i64 %14
  %.not9 = icmp eq i32 %13, 0
  br i1 %.not9, label %._crit_edge, label %.lr.ph

._crit_edge:                                      ; preds = %.lr.ph, %1, %_ZNK15ref_vector_coreI4expr19ref_manager_wrapperIS0_11ast_managerEE3endEv.exit
  ret void

.lr.ph:                                           ; preds = %_ZNK15ref_vector_coreI4expr19ref_manager_wrapperIS0_11ast_managerEE3endEv.exit, %.lr.ph
  %.010 = phi ptr [ %25, %.lr.ph ], [ %10, %_ZNK15ref_vector_coreI4expr19ref_manager_wrapperIS0_11ast_managerEE3endEv.exit ]
  %16 = load ptr, ptr %.010, align 8, !tbaa !64
  %17 = load ptr, ptr %2, align 8, !tbaa !74
  %18 = load ptr, ptr %17, align 8, !tbaa !3
  %19 = getelementptr inbounds nuw i8, ptr %18, i64 160
  %20 = load ptr, ptr %19, align 8
  tail call void %20(ptr noundef nonnull align 8 dereferenceable(96) %17, ptr noundef %16)
  %21 = load ptr, ptr %2, align 8, !tbaa !74
  %22 = load ptr, ptr %21, align 8, !tbaa !3
  %23 = getelementptr inbounds nuw i8, ptr %22, i64 152
  %24 = load ptr, ptr %23, align 8
  tail call void %24(ptr noundef nonnull align 8 dereferenceable(96) %21, ptr noundef %16)
  %25 = getelementptr inbounds nuw i8, ptr %.010, i64 8
  %.not = icmp eq ptr %25, %15
  br i1 %.not, label %._crit_edge, label %.lr.ph
}